target datalayout = "e-m:e-p270:32:32-p271:32:32-p272:64:64-i64:64-i128:128-f80:128-n8:16:32:64-S128"
target triple = "x86_64-pc-linux-gnu"

%struct.grpc_slice = type { ptr, %"union.grpc_slice::grpc_slice_data" }
%"union.grpc_slice::grpc_slice_data" = type { %"struct.grpc_slice::grpc_slice_data::grpc_slice_refcounted", [8 x i8] }
%"struct.grpc_slice::grpc_slice_data::grpc_slice_refcounted" = type { i64, ptr }
%struct.grpc_slice_buffer = type { ptr, ptr, i64, i64, i64, [6 x %struct.grpc_slice] }
%"struct.grpc_slice::grpc_slice_data::grpc_slice_inlined" = type { i8, [23 x i8] }

; Function Attrs: mustprogress uwtable
define internal void @_ZL14maybe_embiggenP17grpc_slice_buffer(ptr noundef %0) #4 {
  %2 = alloca ptr, align 8
  %3 = alloca i64, align 8
  %4 = alloca i64, align 8
  store ptr %0, ptr %2, align 8, !tbaa !10
  %5 = load ptr, ptr %2, align 8, !tbaa !10
  %6 = getelementptr inbounds nuw %struct.grpc_slice_buffer, ptr %5, i32 0, i32 2
  %7 = load i64, ptr %6, align 8, !tbaa !12
  %8 = icmp eq i64 %7, 0
  br i1 %8, label %9, label %15

9:                                                ; preds = %1
  %10 = load ptr, ptr %2, align 8, !tbaa !10
  %11 = getelementptr inbounds nuw %struct.grpc_slice_buffer, ptr %10, i32 0, i32 0
  %12 = load ptr, ptr %11, align 8, !tbaa !54
  %13 = load ptr, ptr %2, align 8, !tbaa !10
  %14 = getelementptr inbounds nuw %struct.grpc_slice_buffer, ptr %13, i32 0, i32 1
  store ptr %12, ptr %14, align 8, !tbaa !18
  br label %44

15:                                               ; preds = %1
  call void @llvm.lifetime.start.p0(i64 8, ptr %3) #3
  %16 = load ptr, ptr %2, align 8, !tbaa !10
  %17 = getelementptr inbounds nuw %struct.grpc_slice_buffer, ptr %16, i32 0, i32 1
  %18 = load ptr, ptr %17, align 8, !tbaa !18
  %19 = load ptr, ptr %2, align 8, !tbaa !10
  %20 = getelementptr inbounds nuw %struct.grpc_slice_buffer, ptr %19, i32 0, i32 0
  %21 = load ptr, ptr %20, align 8, !tbaa !54
  %22 = ptrtoint ptr %18 to i64
  %23 = ptrtoint ptr %21 to i64
  %24 = sub i64 %22, %23
  %25 = sdiv exact i64 %24, 32
  store i64 %25, ptr %3, align 8, !tbaa !16
  call void @llvm.lifetime.start.p0(i64 8, ptr %4) #3
  %26 = load ptr, ptr %2, align 8, !tbaa !10
  %27 = getelementptr inbounds nuw %struct.grpc_slice_buffer, ptr %26, i32 0, i32 2
  %28 = load i64, ptr %27, align 8, !tbaa !12
  %29 = load i64, ptr %3, align 8, !tbaa !16
  %30 = add i64 %28, %29
  store i64 %30, ptr %4, align 8, !tbaa !16
  %31 = load i64, ptr %4, align 8, !tbaa !16
  %32 = load ptr, ptr %2, align 8, !tbaa !10
  %33 = getelementptr inbounds nuw %struct.grpc_slice_buffer, ptr %32, i32 0, i32 3
  %34 = load i64, ptr %33, align 8, !tbaa !53
  %35 = icmp eq i64 %31, %34
  %36 = zext i1 %35 to i64
  %37 = call i64 @llvm.expect.i64(i64 %36, i64 0)
  %38 = icmp ne i64 %37, 0
  br i1 %38, label %39, label %43

39:                                               ; preds = %15
  %40 = load ptr, ptr %2, align 8, !tbaa !10
  %41 = load i64, ptr %4, align 8, !tbaa !16
  %42 = load i64, ptr %3, align 8, !tbaa !16
  call void @_ZL11do_embiggenP17grpc_slice_buffermm(ptr noundef %40, i64 noundef %41, i64 noundef %42)
  br label %43

43:                                               ; preds = %39, %15
  call void @llvm.lifetime.end.p0(i64 8, ptr %4) #3
  call void @llvm.lifetime.end.p0(i64 8, ptr %3) #3
  br label %44

44:                                               ; preds = %43, %9
  ret void
}

; Function Attrs: mustprogress uwtable
define ptr @grpc_slice_buffer_tiny_add(ptr noundef %0, i64 noundef %1) #4 {
  %3 = alloca ptr, align 8
  %4 = alloca ptr, align 8
  %5 = alloca i64, align 8
  %6 = alloca ptr, align 8
  %7 = alloca ptr, align 8
  %8 = alloca i32, align 4
  store ptr %0, ptr %4, align 8, !tbaa !10
  store i64 %1, ptr %5, align 8, !tbaa !16
  call void @llvm.lifetime.start.p0(i64 8, ptr %6) #3
  call void @llvm.lifetime.start.p0(i64 8, ptr %7) #3
  %9 = load i64, ptr %5, align 8, !tbaa !16
  %10 = load ptr, ptr %4, align 8, !tbaa !10
  %11 = getelementptr inbounds nuw %struct.grpc_slice_buffer, ptr %10, i32 0, i32 4
  %12 = load i64, ptr %11, align 8, !tbaa !23
  %13 = add i64 %12, %9
  store i64 %13, ptr %11, align 8, !tbaa !23
  %14 = load ptr, ptr %4, align 8, !tbaa !10
  %15 = getelementptr inbounds nuw %struct.grpc_slice_buffer, ptr %14, i32 0, i32 2
  %16 = load i64, ptr %15, align 8, !tbaa !12
  %17 = icmp eq i64 %16, 0
  br i1 %17, label %18, label %19

18:                                               ; preds = %2
  br label %69

19:                                               ; preds = %2
  %20 = load ptr, ptr %4, align 8, !tbaa !10
  %21 = getelementptr inbounds nuw %struct.grpc_slice_buffer, ptr %20, i32 0, i32 1
  %22 = load ptr, ptr %21, align 8, !tbaa !18
  %23 = load ptr, ptr %4, align 8, !tbaa !10
  %24 = getelementptr inbounds nuw %struct.grpc_slice_buffer, ptr %23, i32 0, i32 2
  %25 = load i64, ptr %24, align 8, !tbaa !12
  %26 = sub i64 %25, 1
  %27 = getelementptr inbounds nuw %struct.grpc_slice, ptr %22, i64 %26
  store ptr %27, ptr %6, align 8, !tbaa !17
  %28 = load ptr, ptr %6, align 8, !tbaa !17
  %29 = getelementptr inbounds nuw %struct.grpc_slice, ptr %28, i32 0, i32 0
  %30 = load ptr, ptr %29, align 8, !tbaa !19
  %31 = icmp ne ptr %30, null
  br i1 %31, label %32, label %33

32:                                               ; preds = %19
  br label %67

33:                                               ; preds = %19
  %34 = load ptr, ptr %6, align 8, !tbaa !17
  %35 = getelementptr inbounds nuw %struct.grpc_slice, ptr %34, i32 0, i32 1
  %36 = getelementptr inbounds nuw %"struct.grpc_slice::grpc_slice_data::grpc_slice_inlined", ptr %35, i32 0, i32 0
  %37 = load i8, ptr %36, align 8, !tbaa !22
  %38 = zext i8 %37 to i64
  %39 = load i64, ptr %5, align 8, !tbaa !16
  %40 = add i64 %38, %39
  %41 = icmp ugt i64 %40, 23
  br i1 %41, label %42, label %43

42:                                               ; preds = %33
  br label %67

43:                                               ; preds = %33
  %44 = load ptr, ptr %6, align 8, !tbaa !17
  %45 = getelementptr inbounds nuw %struct.grpc_slice, ptr %44, i32 0, i32 1
  %46 = getelementptr inbounds nuw %"struct.grpc_slice::grpc_slice_data::grpc_slice_inlined", ptr %45, i32 0, i32 1
  %47 = getelementptr inbounds [23 x i8], ptr %46, i64 0, i64 0
  %48 = load ptr, ptr %6, align 8, !tbaa !17
  %49 = getelementptr inbounds nuw %struct.grpc_slice, ptr %48, i32 0, i32 1
  %50 = getelementptr inbounds nuw %"struct.grpc_slice::grpc_slice_data::grpc_slice_inlined", ptr %49, i32 0, i32 0
  %51 = load i8, ptr %50, align 8, !tbaa !22
  %52 = zext i8 %51 to i32
  %53 = sext i32 %52 to i64
  %54 = getelementptr inbounds i8, ptr %47, i64 %53
  store ptr %54, ptr %7, align 8, !tbaa !41
  %55 = load ptr, ptr %6, align 8, !tbaa !17
  %56 = getelementptr inbounds nuw %struct.grpc_slice, ptr %55, i32 0, i32 1
  %57 = getelementptr inbounds nuw %"struct.grpc_slice::grpc_slice_data::grpc_slice_inlined", ptr %56, i32 0, i32 0
  %58 = load i8, ptr %57, align 8, !tbaa !22
  %59 = zext i8 %58 to i64
  %60 = load i64, ptr %5, align 8, !tbaa !16
  %61 = add i64 %59, %60
  %62 = trunc i64 %61 to i8
  %63 = load ptr, ptr %6, align 8, !tbaa !17
  %64 = getelementptr inbounds nuw %struct.grpc_slice, ptr %63, i32 0, i32 1
  %65 = getelementptr inbounds nuw %"struct.grpc_slice::grpc_slice_data::grpc_slice_inlined", ptr %64, i32 0, i32 0
  store i8 %62, ptr %65, align 8, !tbaa !22
  %66 = load ptr, ptr %7, align 8, !tbaa !41
  store ptr %66, ptr %3, align 8
  store i32 1, ptr %8, align 4
  br label %92

67:                                               ; preds = %42, %32
  %68 = load ptr, ptr %4, align 8, !tbaa !10
  call void @_ZL14maybe_embiggenP17grpc_slice_buffer(ptr noundef %68)
  br label %69

69:                                               ; preds = %67, %18
  %70 = load ptr, ptr %4, align 8, !tbaa !10
  %71 = getelementptr inbounds nuw %struct.grpc_slice_buffer, ptr %70, i32 0, i32 1
  %72 = load ptr, ptr %71, align 8, !tbaa !18
  %73 = load ptr, ptr %4, align 8, !tbaa !10
  %74 = getelementptr inbounds nuw %struct.grpc_slice_buffer, ptr %73, i32 0, i32 2
  %75 = load i64, ptr %74, align 8, !tbaa !12
  %76 = getelementptr inbounds nuw %struct.grpc_slice, ptr %72, i64 %75
  store ptr %76, ptr %6, align 8, !tbaa !17
  %77 = load ptr, ptr %4, align 8, !tbaa !10
  %78 = getelementptr inbounds nuw %struct.grpc_slice_buffer, ptr %77, i32 0, i32 2
  %79 = load i64, ptr %78, align 8, !tbaa !12
  %80 = add i64 %79, 1
  store i64 %80, ptr %78, align 8, !tbaa !12
  %81 = load ptr, ptr %6, align 8, !tbaa !17
  %82 = getelementptr inbounds nuw %struct.grpc_slice, ptr %81, i32 0, i32 0
  store ptr null, ptr %82, align 8, !tbaa !19
  %83 = load i64, ptr %5, align 8, !tbaa !16
  %84 = trunc i64 %83 to i8
  %85 = load ptr, ptr %6, align 8, !tbaa !17
  %86 = getelementptr inbounds nuw %struct.grpc_slice, ptr %85, i32 0, i32 1
  %87 = getelementptr inbounds nuw %"struct.grpc_slice::grpc_slice_data::grpc_slice_inlined", ptr %86, i32 0, i32 0
  store i8 %84, ptr %87, align 8, !tbaa !22
  %88 = load ptr, ptr %6, align 8, !tbaa !17
  %89 = getelementptr inbounds nuw %struct.grpc_slice, ptr %88, i32 0, i32 1
  %90 = getelementptr inbounds nuw %"struct.grpc_slice::grpc_slice_data::grpc_slice_inlined", ptr %89, i32 0, i32 1
  %91 = getelementptr inbounds [23 x i8], ptr %90, i64 0, i64 0
  store ptr %91, ptr %3, align 8
  store i32 1, ptr %8, align 4
  br label %92

92:                                               ; preds = %69, %43
  call void @llvm.lifetime.end.p0(i64 8, ptr %7) #3
  call void @llvm.lifetime.end.p0(i64 8, ptr %6) #3
  %93 = load ptr, ptr %3, align 8
  ret ptr %93
}