; Function Attrs: mustprogress uwtable
define ptr @grpc_slice_buffer_tiny_add(ptr noundef %0, i64 noundef %1) local_unnamed_addr #3 {
  %3 = getelementptr inbounds nuw i8, ptr %0, i64 32
  %4 = load i64, ptr %3, align 8, !tbaa !20
  %5 = add i64 %4, %1
  store i64 %5, ptr %3, align 8, !tbaa !20
  %6 = getelementptr inbounds nuw i8, ptr %0, i64 16
  %7 = load i64, ptr %6, align 8, !tbaa !13
  %8 = icmp eq i64 %7, 0
  br i1 %8, label %_ZL14maybe_embiggenP17grpc_slice_buffer.exit, label %9

9:                                                ; preds = %2
  %10 = getelementptr inbounds nuw i8, ptr %0, i64 8
  %11 = load ptr, ptr %10, align 8, !tbaa !17
  %12 = getelementptr %struct.grpc_slice, ptr %11, i64 %7
  %13 = getelementptr i8, ptr %12, i64 -32
  %14 = load ptr, ptr %13, align 8, !tbaa !18
  %.not = icmp eq ptr %14, null
  br i1 %.not, label %15, label %25

15:                                               ; preds = %9
  %16 = getelementptr i8, ptr %12, i64 -24
  %17 = load i8, ptr %16, align 8, !tbaa !9
  %18 = zext i8 %17 to i64
  %19 = add i64 %1, %18
  %20 = icmp ugt i64 %19, 23
  br i1 %20, label %25, label %21

21:                                               ; preds = %15
  %22 = getelementptr i8, ptr %12, i64 -23
  %23 = getelementptr inbounds nuw i8, ptr %22, i64 %18
  %24 = trunc nuw nsw i64 %19 to i8
  store i8 %24, ptr %16, align 8, !tbaa !9
  br label %44

25:                                               ; preds = %9, %15
  %26 = load ptr, ptr %0, align 8, !tbaa !25
  %27 = ptrtoint ptr %11 to i64
  %28 = ptrtoint ptr %26 to i64
  %29 = sub i64 %27, %28
  %30 = ashr exact i64 %29, 5
  %31 = add i64 %30, %7
  %32 = getelementptr inbounds nuw i8, ptr %0, i64 24
  %33 = load i64, ptr %32, align 8, !tbaa !26
  %34 = icmp eq i64 %31, %33
  br i1 %34, label %35, label %_ZL14maybe_embiggenP17grpc_slice_buffer.exit, !prof !27

35:                                               ; preds = %25
  tail call fastcc void @_ZL11do_embiggenP17grpc_slice_buffermm(ptr noundef nonnull %0, i64 noundef %31, i64 noundef %30)
  %.pre = load i64, ptr %6, align 8, !tbaa !13
  br label %_ZL14maybe_embiggenP17grpc_slice_buffer.exit

_ZL14maybe_embiggenP17grpc_slice_buffer.exit:     ; preds = %35, %25, %2
  %36 = phi i64 [ %.pre, %35 ], [ %7, %25 ], [ 0, %2 ]
  %37 = getelementptr inbounds nuw i8, ptr %0, i64 8
  %38 = load ptr, ptr %37, align 8, !tbaa !17
  %39 = getelementptr inbounds nuw %struct.grpc_slice, ptr %38, i64 %36
  %40 = add i64 %36, 1
  store i64 %40, ptr %6, align 8, !tbaa !13
  store ptr null, ptr %39, align 8, !tbaa !18
  %41 = trunc i64 %1 to i8
  %42 = getelementptr inbounds nuw i8, ptr %39, i64 8
  store i8 %41, ptr %42, align 8, !tbaa !9
  %43 = getelementptr inbounds nuw i8, ptr %39, i64 9
  br label %44

44:                                               ; preds = %_ZL14maybe_embiggenP17grpc_slice_buffer.exit, %21
  %.0 = phi ptr [ %43, %_ZL14maybe_embiggenP17grpc_slice_buffer.exit ], [ %23, %21 ]
  ret ptr %.0
}